; Function Attrs: mustprogress uwtable
define void @_ZNK10open_spiel13markov_soccer17MarkovSoccerState5CloneEv(ptr dead_on_unwind noalias nocapture writable writeonly sret(%"class.std::unique_ptr") align 8 %0, ptr noundef nonnull align 8 dereferenceable(144) %1) unnamed_addr #3 align 2 personality ptr @__gxx_personality_v0 {
  %3 = tail call noalias noundef nonnull dereferenceable(144) ptr @_Znwm(i64 noundef 144) #28
  invoke void @_ZN10open_spiel5StateC2ERKS0_(ptr noundef nonnull align 8 dereferenceable(60) %3, ptr noundef nonnull align 8 dereferenceable(60) %1)
          to label %.noexc unwind label %10

.noexc:                                           ; preds = %2
  store ptr getelementptr inbounds inrange(-16, 304) (i8, ptr @_ZTVN10open_spiel13markov_soccer17MarkovSoccerStateE, i64 16), ptr %3, align 8
  %4 = getelementptr inbounds nuw i8, ptr %3, i64 64
  %5 = getelementptr inbounds nuw i8, ptr %1, i64 64
  tail call void @llvm.memcpy.p0.p0.i64(ptr noundef nonnull align 8 dereferenceable(56) %4, ptr noundef nonnull align 8 dereferenceable(56) %5, i64 56, i1 false)
  %6 = getelementptr inbounds nuw i8, ptr %3, i64 120
  %7 = getelementptr inbounds nuw i8, ptr %1, i64 120
  invoke void @_ZNSt6vectorIcSaIcEEC2ERKS1_(ptr noundef nonnull align 8 dereferenceable(24) %6, ptr noundef nonnull align 8 dereferenceable(24) %7)
          to label %_ZN10open_spiel13markov_soccer17MarkovSoccerStateC2ERKS1_.exit unwind label %8

8:                                                ; preds = %.noexc
  %9 = landingpad { ptr, i32 }
          cleanup
  tail call void @_ZN10open_spiel12SimMoveStateD2Ev(ptr noundef nonnull align 8 dereferenceable(60) %3) #26
  br label %.body

_ZN10open_spiel13markov_soccer17MarkovSoccerStateC2ERKS1_.exit: ; preds = %.noexc
  store ptr %3, ptr %0, align 8
  ret void

10:                                               ; preds = %2
  %11 = landingpad { ptr, i32 }
          cleanup
  br label %.body

.body:                                            ; preds = %8, %10
  %eh.lpad-body = phi { ptr, i32 } [ %11, %10 ], [ %9, %8 ]
  tail call void @_ZdlPvm(ptr noundef nonnull %3, i64 noundef 144) #29
  resume { ptr, i32 } %eh.lpad-body
}